; Function Attrs: nounwind uwtable
define zeroext range(i8 0, 2) i8 @l_Std_DHashMap_Internal_AssocList_contains___at_Lean_Server_FileWorker_filterDuplicateSemanticTokens___spec__2(ptr noundef readonly captures(none) %0, ptr noundef %1) local_unnamed_addr #0 {
  %3 = getelementptr inbounds nuw i8, ptr %0, i64 8
  %4 = getelementptr inbounds nuw i8, ptr %0, i64 16
  %5 = getelementptr inbounds nuw i8, ptr %0, i64 24
  br label %.backedge

.backedge:                                        ; preds = %.backedge.backedge, %2
  %.011 = phi ptr [ %1, %2 ], [ %19, %.backedge.backedge ]
  %6 = ptrtoint ptr %.011 to i64
  %7 = and i64 %6, 1
  %.not.i = icmp eq i64 %7, 0
  br i1 %.not.i, label %11, label %8

8:                                                ; preds = %.backedge
  %9 = lshr i64 %6, 1
  %10 = trunc i64 %9 to i32
  br label %lean_obj_tag.exit

11:                                               ; preds = %.backedge
  %12 = getelementptr i8, ptr %.011, i64 4
  %.val.i = load i32, ptr %12, align 4
  %13 = lshr i32 %.val.i, 24
  br label %lean_obj_tag.exit

lean_obj_tag.exit:                                ; preds = %8, %11
  %.0.i = phi i32 [ %10, %8 ], [ %13, %11 ]
  %14 = icmp eq i32 %.0.i, 0
  br i1 %14, label %36, label %15

15:                                               ; preds = %lean_obj_tag.exit
  %16 = getelementptr inbounds nuw i8, ptr %.011, i64 8
  %17 = load ptr, ptr %16, align 8, !tbaa !11
  %18 = getelementptr inbounds nuw i8, ptr %.011, i64 24
  %19 = load ptr, ptr %18, align 8, !tbaa !11
  %20 = getelementptr inbounds nuw i8, ptr %17, i64 8
  %21 = load ptr, ptr %20, align 8, !tbaa !11
  %22 = getelementptr inbounds nuw i8, ptr %17, i64 16
  %23 = load ptr, ptr %22, align 8, !tbaa !11
  %24 = getelementptr inbounds nuw i8, ptr %17, i64 24
  %25 = load i8, ptr %24, align 1, !tbaa !13
  %26 = load ptr, ptr %3, align 8, !tbaa !11
  %27 = load ptr, ptr %4, align 8, !tbaa !11
  %28 = load i8, ptr %5, align 1, !tbaa !13
  %29 = tail call zeroext i8 @l_Lean_Lsp_beqPosition____x40_Lean_Data_Lsp_Basic___hyg_41_(ptr noundef %21, ptr noundef %26) #7
  %30 = icmp eq i8 %29, 0
  br i1 %30, label %.backedge.backedge, label %31

.backedge.backedge:                               ; preds = %15, %31, %l_Lean_Server_FileWorker_beqAbsoluteLspSemanticToken____x40_Lean_Server_FileWorker_SemanticHighlighting___hyg_96_.exit
  br label %.backedge

31:                                               ; preds = %15
  %32 = tail call zeroext i8 @l_Lean_Lsp_beqPosition____x40_Lean_Data_Lsp_Basic___hyg_41_(ptr noundef %23, ptr noundef %27) #7
  %33 = icmp eq i8 %32, 0
  br i1 %33, label %.backedge.backedge, label %l_Lean_Server_FileWorker_beqAbsoluteLspSemanticToken____x40_Lean_Server_FileWorker_SemanticHighlighting___hyg_96_.exit

l_Lean_Server_FileWorker_beqAbsoluteLspSemanticToken____x40_Lean_Server_FileWorker_SemanticHighlighting___hyg_96_.exit: ; preds = %31
  %34 = tail call zeroext i8 @l_Lean_Lsp_beqSemanticTokenType____x40_Lean_Data_Lsp_LanguageFeatures___hyg_8921_(i8 noundef zeroext %25, i8 noundef zeroext %28) #7
  %35 = icmp eq i8 %34, 0
  br i1 %35, label %.backedge.backedge, label %36

36:                                               ; preds = %l_Lean_Server_FileWorker_beqAbsoluteLspSemanticToken____x40_Lean_Server_FileWorker_SemanticHighlighting___hyg_96_.exit, %lean_obj_tag.exit
  %.1 = phi i8 [ 1, %l_Lean_Server_FileWorker_beqAbsoluteLspSemanticToken____x40_Lean_Server_FileWorker_SemanticHighlighting___hyg_96_.exit ], [ 0, %lean_obj_tag.exit ]
  ret i8 %.1
}